target datalayout = "e-m:e-p270:32:32-p271:32:32-p272:64:64-i64:64-i128:128-f80:128-n8:16:32:64-S128"
target triple = "x86_64-unknown-linux-gnu"

%struct.acpi_namestring_info = type { ptr, ptr, ptr, i32, i32, i32, i8 }

@_ctype = external dso_local local_unnamed_addr constant [0 x i8], align 1

; Function Attrs: fn_ret_thunk_extern nofree norecurse nosync nounwind null_pointer_is_valid memory(readwrite, inaccessiblemem: none)
define dso_local noundef i32 @acpi_ns_build_internal_name(ptr nocapture noundef readonly %0) local_unnamed_addr #5 align 16 {
  %2 = getelementptr inbounds i8, ptr %0, i64 28
  %3 = load i32, ptr %2, align 4
  %4 = getelementptr inbounds i8, ptr %0, i64 16
  %5 = load ptr, ptr %4, align 8
  %6 = getelementptr inbounds i8, ptr %0, i64 8
  %7 = load ptr, ptr %6, align 8
  %8 = getelementptr inbounds i8, ptr %0, i64 36
  %9 = load i8, ptr %8, align 4
  %10 = icmp eq i8 %9, 0
  br i1 %10, label %24, label %11

11:                                               ; preds = %1
  store i8 92, ptr %5, align 1
  %12 = icmp ult i32 %3, 2
  br i1 %12, label %13, label %15

13:                                               ; preds = %11
  %14 = getelementptr i8, ptr %5, i64 1
  br label %54

15:                                               ; preds = %11
  %16 = icmp eq i32 %3, 2
  %17 = getelementptr i8, ptr %5, i64 1
  br i1 %16, label %18, label %20

18:                                               ; preds = %15
  store i8 46, ptr %17, align 1
  %19 = getelementptr i8, ptr %5, i64 2
  br label %54

20:                                               ; preds = %15
  store i8 47, ptr %17, align 1
  %21 = trunc i32 %3 to i8
  %22 = getelementptr i8, ptr %5, i64 2
  store i8 %21, ptr %22, align 1
  %23 = getelementptr i8, ptr %5, i64 3
  br label %54

24:                                               ; preds = %1
  %25 = getelementptr inbounds i8, ptr %0, i64 32
  %26 = load i32, ptr %25, align 8
  %27 = icmp eq i32 %26, 0
  br i1 %27, label %40, label %28

28:                                               ; preds = %24
  %29 = load i32, ptr %25, align 8
  %30 = icmp eq i32 %29, 0
  br i1 %30, label %40, label %31

31:                                               ; preds = %31, %28
  %32 = phi i64 [ %34, %31 ], [ 0, %28 ]
  %33 = getelementptr i8, ptr %5, i64 %32
  store i8 94, ptr %33, align 1
  %34 = add nuw nsw i64 %32, 1
  %35 = load i32, ptr %25, align 8
  %36 = zext i32 %35 to i64
  %37 = icmp ult i64 %34, %36
  br i1 %37, label %31, label %38, !llvm.loop !11

38:                                               ; preds = %31
  %39 = and i64 %34, 4294967295
  br label %40

40:                                               ; preds = %38, %28, %24
  %41 = phi i64 [ 0, %24 ], [ 0, %28 ], [ %39, %38 ]
  %42 = icmp ult i32 %3, 2
  br i1 %42, label %43, label %45

43:                                               ; preds = %40
  %44 = getelementptr i8, ptr %5, i64 %41
  br label %54

45:                                               ; preds = %40
  %46 = icmp eq i32 %3, 2
  %47 = getelementptr i8, ptr %5, i64 %41
  br i1 %46, label %48, label %50

48:                                               ; preds = %45
  store i8 46, ptr %47, align 1
  %49 = getelementptr i8, ptr %47, i64 1
  br label %54

50:                                               ; preds = %45
  store i8 47, ptr %47, align 1
  %51 = trunc i32 %3 to i8
  %52 = getelementptr i8, ptr %47, i64 1
  store i8 %51, ptr %52, align 1
  %53 = getelementptr i8, ptr %47, i64 2
  br label %54

54:                                               ; preds = %50, %48, %43, %20, %18, %13
  %55 = phi ptr [ %14, %13 ], [ %19, %18 ], [ %23, %20 ], [ %44, %43 ], [ %49, %48 ], [ %53, %50 ]
  %56 = icmp eq i32 %3, 0
  br i1 %56, label %88, label %57

57:                                               ; preds = %83, %54
  %58 = phi ptr [ %85, %83 ], [ %55, %54 ]
  %59 = phi ptr [ %84, %83 ], [ %7, %54 ]
  %60 = phi i32 [ %86, %83 ], [ %3, %54 ]
  br label %61

61:                                               ; preds = %77, %57
  %62 = phi i64 [ 0, %57 ], [ %79, %77 ]
  %63 = phi ptr [ %59, %57 ], [ %78, %77 ]
  %64 = load i8, ptr %63, align 1
  switch i8 %64, label %67 [
    i8 46, label %65
    i8 0, label %65
  ]

65:                                               ; preds = %61, %61
  %66 = getelementptr i8, ptr %58, i64 %62
  store i8 95, ptr %66, align 1
  br label %77

67:                                               ; preds = %61
  %68 = zext i8 %64 to i64
  %69 = getelementptr [0 x i8], ptr @_ctype, i64 0, i64 %68
  %70 = load i8, ptr %69, align 1
  %71 = and i8 %70, 2
  %72 = icmp eq i8 %71, 0
  %73 = add i8 %64, -32
  %74 = select i1 %72, i8 %64, i8 %73
  %75 = getelementptr i8, ptr %58, i64 %62
  store i8 %74, ptr %75, align 1
  %76 = getelementptr i8, ptr %63, i64 1
  br label %77

77:                                               ; preds = %67, %65
  %78 = phi ptr [ %63, %65 ], [ %76, %67 ]
  %79 = add nuw nsw i64 %62, 1
  %80 = icmp eq i64 %79, 4
  br i1 %80, label %81, label %61, !llvm.loop !12

81:                                               ; preds = %77
  %82 = load i8, ptr %78, align 1
  switch i8 %82, label %90 [
    i8 46, label %83
    i8 0, label %83
  ]

83:                                               ; preds = %81, %81
  %84 = getelementptr i8, ptr %78, i64 1
  %85 = getelementptr i8, ptr %58, i64 4
  %86 = add i32 %60, -1
  %87 = icmp eq i32 %86, 0
  br i1 %87, label %88, label %57, !llvm.loop !13

88:                                               ; preds = %83, %54
  %89 = phi ptr [ %55, %54 ], [ %85, %83 ]
  store i8 0, ptr %89, align 1
  br label %90

90:                                               ; preds = %88, %81
  %91 = phi i32 [ 0, %88 ], [ 4099, %81 ]
  ret i32 %91
}

; Function Attrs: fn_ret_thunk_extern nounwind null_pointer_is_valid
define dso_local noundef i32 @acpi_ns_internalize_name(ptr noundef %0, ptr noundef writeonly %1) local_unnamed_addr #0 align 16 {
  %3 = alloca i64, align 8
  %4 = alloca %struct.acpi_namestring_info, align 8
  call void @llvm.lifetime.start.p0(i64 40, ptr nonnull %4) #9
  call void @llvm.memset.p0.i64(ptr noundef nonnull align 8 dereferenceable(40) %4, i8 0, i64 40, i1 false), !annotation !5
  %5 = icmp eq ptr %0, null
  br i1 %5, label %68, label %6

6:                                                ; preds = %2
  %7 = load i8, ptr %0, align 1
  %8 = icmp ne i8 %7, 0
  %9 = icmp ne ptr %1, null
  %10 = and i1 %9, %8
  br i1 %10, label %11, label %68

11:                                               ; preds = %6
  store ptr %0, ptr %4, align 8
  %12 = getelementptr inbounds i8, ptr %4, i64 32
  %13 = getelementptr inbounds i8, ptr %4, i64 28
  call void @llvm.memset.p0.i64(ptr noundef align 4 dereferenceable(9) %13, i8 0, i64 9, i1 false)
  switch i8 %7, label %31 [
    i8 92, label %16
    i8 94, label %14
  ]

14:                                               ; preds = %11
  %15 = load i32, ptr %12, align 8
  br label %23

16:                                               ; preds = %11
  %17 = getelementptr inbounds i8, ptr %4, i64 36
  store i8 1, ptr %17, align 4
  br label %18

18:                                               ; preds = %18, %16
  %19 = phi ptr [ %0, %16 ], [ %20, %18 ]
  %20 = getelementptr i8, ptr %19, i64 1
  %21 = load i8, ptr %20, align 1
  %22 = icmp eq i8 %21, 92
  br i1 %22, label %18, label %31, !llvm.loop !6

23:                                               ; preds = %23, %14
  %24 = phi i32 [ %15, %14 ], [ %26, %23 ]
  %25 = phi ptr [ %0, %14 ], [ %27, %23 ]
  %26 = add i32 %24, 1
  %27 = getelementptr i8, ptr %25, i64 1
  %28 = load i8, ptr %27, align 1
  %29 = icmp eq i8 %28, 94
  br i1 %29, label %23, label %30, !llvm.loop !9

30:                                               ; preds = %23
  store i32 %26, ptr %12, align 8
  br label %31

31:                                               ; preds = %30, %18, %11
  %32 = phi ptr [ %0, %11 ], [ %27, %30 ], [ %20, %18 ]
  %33 = load i8, ptr %32, align 1
  %34 = icmp eq i8 %33, 0
  br i1 %34, label %47, label %35

35:                                               ; preds = %31
  store i32 1, ptr %13, align 4
  br label %36

36:                                               ; preds = %44, %35
  %37 = phi i32 [ 1, %35 ], [ %45, %44 ]
  %38 = phi i32 [ 0, %35 ], [ %46, %44 ]
  %39 = zext i32 %38 to i64
  %40 = getelementptr i8, ptr %32, i64 %39
  %41 = load i8, ptr %40, align 1
  switch i8 %41, label %44 [
    i8 0, label %47
    i8 46, label %42
  ]

42:                                               ; preds = %36
  %43 = add i32 %37, 1
  store i32 %43, ptr %13, align 4
  br label %44

44:                                               ; preds = %42, %36
  %45 = phi i32 [ %43, %42 ], [ %37, %36 ]
  %46 = add i32 %38, 1
  br label %36, !llvm.loop !10

47:                                               ; preds = %36, %31
  %48 = load i32, ptr %13, align 4
  %49 = shl i32 %48, 2
  %50 = add i32 %49, 4
  %51 = load i32, ptr %12, align 8
  %52 = add i32 %50, %51
  %53 = getelementptr inbounds i8, ptr %4, i64 24
  store i32 %52, ptr %53, align 8
  %54 = getelementptr inbounds i8, ptr %4, i64 8
  store ptr %32, ptr %54, align 8
  call void @llvm.lifetime.start.p0(i64 8, ptr nonnull %3) #9
  store i64 0, ptr %3, align 8, !annotation !5
  call void asm sideeffect "# __raw_save_flags\0A\09pushf ; pop $0", "=*rm,~{memory},~{dirflag},~{fpsr},~{flags}"(ptr nonnull elementtype(i64) %3) #9, !srcloc !14
  %55 = load i64, ptr %3, align 8
  call void @llvm.lifetime.end.p0(i64 8, ptr nonnull %3) #9
  %56 = and i64 %55, 512
  %57 = icmp eq i64 %56, 0
  %58 = select i1 %57, i32 2336, i32 3520
  %59 = zext i32 %52 to i64
  %60 = call noalias align 8 ptr @__kmalloc(i64 noundef %59, i32 noundef %58) #10
  %61 = icmp eq ptr %60, null
  br i1 %61, label %68, label %62

62:                                               ; preds = %47
  %63 = getelementptr inbounds i8, ptr %4, i64 16
  store ptr %60, ptr %63, align 8
  %64 = call i32 @acpi_ns_build_internal_name(ptr noundef nonnull %4), !range !15
  %65 = icmp eq i32 %64, 0
  br i1 %65, label %67, label %66

66:                                               ; preds = %62
  call void @kfree(ptr noundef nonnull %60) #9
  br label %68

67:                                               ; preds = %62
  store ptr %60, ptr %1, align 8
  br label %68

68:                                               ; preds = %67, %66, %47, %6, %2
  %69 = phi i32 [ %64, %66 ], [ 0, %67 ], [ 4097, %6 ], [ 4097, %2 ], [ 4, %47 ]
  call void @llvm.lifetime.end.p0(i64 40, ptr nonnull %4) #9
  ret i32 %69
}