; Function Attrs: fn_ret_thunk_extern nounwind null_pointer_is_valid
define dso_local noundef i32 @acpi_ns_internalize_name(ptr noundef readonly %0, ptr noundef writeonly %1) local_unnamed_addr #0 align 16 {
  %3 = alloca i64, align 8
  %4 = icmp eq ptr %0, null
  br i1 %4, label %107, label %5

5:                                                ; preds = %2
  %6 = load i8, ptr %0, align 1
  %7 = icmp ne i8 %6, 0
  %8 = icmp ne ptr %1, null
  %9 = and i1 %8, %7
  br i1 %9, label %10, label %107

10:                                               ; preds = %5
  switch i8 %6, label %.thread [
    i8 92, label %.preheader
    i8 94, label %.preheader24
  ]

.preheader:                                       ; preds = %10, %.preheader
  %11 = phi ptr [ %12, %.preheader ], [ %0, %10 ]
  %12 = getelementptr i8, ptr %11, i64 1
  %13 = load i8, ptr %12, align 1
  %14 = icmp eq i8 %13, 92
  br i1 %14, label %.preheader, label %.loopexit23, !llvm.loop !6

.preheader24:                                     ; preds = %10, %.preheader24
  %15 = phi i32 [ %17, %.preheader24 ], [ 0, %10 ]
  %16 = phi ptr [ %18, %.preheader24 ], [ %0, %10 ]
  %17 = add i32 %15, 1
  %18 = getelementptr i8, ptr %16, i64 1
  %19 = load i8, ptr %18, align 1
  %20 = icmp eq i8 %19, 94
  br i1 %20, label %.preheader24, label %.loopexit23, !llvm.loop !9

.loopexit23:                                      ; preds = %.preheader24, %.preheader
  %21 = phi i8 [ %13, %.preheader ], [ %19, %.preheader24 ]
  %.sroa.14.0 = phi i32 [ 0, %.preheader ], [ %17, %.preheader24 ]
  %.sroa.19.0 = phi i8 [ 1, %.preheader ], [ 0, %.preheader24 ]
  %22 = phi ptr [ %12, %.preheader ], [ %18, %.preheader24 ]
  %23 = icmp eq i8 %21, 0
  br i1 %23, label %.loopexit22, label %.thread

.thread:                                          ; preds = %10, %.loopexit23
  %24 = phi i8 [ %21, %.loopexit23 ], [ %6, %10 ]
  %25 = phi ptr [ %22, %.loopexit23 ], [ %0, %10 ]
  %.sroa.19.020 = phi i8 [ %.sroa.19.0, %.loopexit23 ], [ 0, %10 ]
  %.sroa.14.018 = phi i32 [ %.sroa.14.0, %.loopexit23 ], [ 0, %10 ]
  br label %26

26:                                               ; preds = %32, %.thread
  %27 = phi i8 [ %24, %.thread ], [ %.pre, %32 ]
  %.sroa.9.0 = phi i32 [ 1, %.thread ], [ %.sroa.9.1, %32 ]
  %28 = phi i32 [ 1, %.thread ], [ %33, %32 ]
  %29 = phi i32 [ 0, %.thread ], [ %34, %32 ]
  switch i8 %27, label %32 [
    i8 0, label %.loopexit22
    i8 46, label %30
  ]

30:                                               ; preds = %26
  %31 = add i32 %28, 1
  br label %32

32:                                               ; preds = %30, %26
  %.sroa.9.1 = phi i32 [ %.sroa.9.0, %26 ], [ %31, %30 ]
  %33 = phi i32 [ %28, %26 ], [ %31, %30 ]
  %34 = add i32 %29, 1
  %.phi.trans.insert = zext i32 %34 to i64
  %.phi.trans.insert41 = getelementptr i8, ptr %25, i64 %.phi.trans.insert
  %.pre = load i8, ptr %.phi.trans.insert41, align 1
  br label %26, !llvm.loop !10

.loopexit22:                                      ; preds = %26, %.loopexit23
  %35 = phi ptr [ %22, %.loopexit23 ], [ %25, %26 ]
  %.sroa.19.021 = phi i8 [ %.sroa.19.0, %.loopexit23 ], [ %.sroa.19.020, %26 ]
  %.sroa.14.019 = phi i32 [ %.sroa.14.0, %.loopexit23 ], [ %.sroa.14.018, %26 ]
  %.sroa.9.2 = phi i32 [ 0, %.loopexit23 ], [ %.sroa.9.0, %26 ]
  %36 = shl i32 %.sroa.9.2, 2
  %37 = add i32 %.sroa.14.019, 4
  %38 = add i32 %37, %36
  call void @llvm.lifetime.start.p0(i64 8, ptr nonnull %3) #9
  store i64 0, ptr %3, align 8, !annotation !5
  call void asm sideeffect "# __raw_save_flags\0A\09pushf ; pop $0", "=*rm,~{memory},~{dirflag},~{fpsr},~{flags}"(ptr nonnull elementtype(i64) %3) #9, !srcloc !14
  %39 = load i64, ptr %3, align 8
  call void @llvm.lifetime.end.p0(i64 8, ptr nonnull %3) #9
  %40 = and i64 %39, 512
  %41 = icmp eq i64 %40, 0
  %42 = select i1 %41, i32 2336, i32 3520
  %43 = zext i32 %38 to i64
  %44 = call noalias align 8 ptr @__kmalloc(i64 noundef %43, i32 noundef %42) #10
  %45 = icmp eq ptr %44, null
  br i1 %45, label %107, label %46

46:                                               ; preds = %.loopexit22
  %47 = icmp eq i8 %.sroa.19.021, 0
  br i1 %47, label %59, label %48

48:                                               ; preds = %46
  store i8 92, ptr %44, align 8
  %49 = icmp ult i32 %.sroa.9.2, 2
  br i1 %49, label %73, label %50

50:                                               ; preds = %48
  %51 = icmp eq i32 %.sroa.9.2, 2
  %52 = getelementptr i8, ptr %44, i64 1
  br i1 %51, label %53, label %55

53:                                               ; preds = %50
  store i8 46, ptr %52, align 1
  %54 = getelementptr i8, ptr %44, i64 2
  br label %.preheader.i.preheader

55:                                               ; preds = %50
  store i8 47, ptr %52, align 1
  %56 = trunc i32 %.sroa.9.2 to i8
  %57 = getelementptr i8, ptr %44, i64 2
  store i8 %56, ptr %57, align 2
  %58 = getelementptr i8, ptr %44, i64 3
  br label %.preheader.i.preheader

59:                                               ; preds = %46
  %60 = icmp eq i32 %.sroa.14.019, 0
  br i1 %60, label %.loopexit6.i, label %.preheader5.i.preheader

.preheader5.i.preheader:                          ; preds = %59
  %61 = zext i32 %.sroa.14.019 to i64
  call void @llvm.memset.p0.i64(ptr nonnull align 8 %44, i8 94, i64 %61, i1 false)
  br label %.loopexit6.i

.loopexit6.i:                                     ; preds = %.preheader5.i.preheader, %59
  %62 = phi i64 [ 0, %59 ], [ %61, %.preheader5.i.preheader ]
  %63 = icmp ult i32 %.sroa.9.2, 2
  br i1 %63, label %73, label %64

64:                                               ; preds = %.loopexit6.i
  %65 = icmp eq i32 %.sroa.9.2, 2
  %66 = getelementptr i8, ptr %44, i64 %62
  br i1 %65, label %67, label %69

67:                                               ; preds = %64
  store i8 46, ptr %66, align 1
  %68 = getelementptr i8, ptr %66, i64 1
  br label %.preheader.i.preheader

69:                                               ; preds = %64
  store i8 47, ptr %66, align 1
  %70 = trunc i32 %.sroa.9.2 to i8
  %71 = getelementptr i8, ptr %66, i64 1
  store i8 %70, ptr %71, align 1
  %72 = getelementptr i8, ptr %66, i64 2
  br label %.preheader.i.preheader

73:                                               ; preds = %.loopexit6.i, %48
  %.sink.i = phi i64 [ 1, %48 ], [ %62, %.loopexit6.i ]
  %74 = getelementptr i8, ptr %44, i64 %.sink.i
  %75 = icmp eq i32 %.sroa.9.2, 0
  br i1 %75, label %.loopexit, label %.preheader.i.preheader

.preheader.i.preheader:                           ; preds = %73, %69, %67, %55, %53
  %.ph = phi ptr [ %54, %53 ], [ %58, %55 ], [ %68, %67 ], [ %72, %69 ], [ %74, %73 ]
  br label %.preheader.i

.preheader.i:                                     ; preds = %.preheader.i.preheader, %101
  %76 = phi ptr [ %103, %101 ], [ %.ph, %.preheader.i.preheader ]
  %77 = phi ptr [ %102, %101 ], [ %35, %.preheader.i.preheader ]
  %78 = phi i32 [ %104, %101 ], [ %.sroa.9.2, %.preheader.i.preheader ]
  br label %79

79:                                               ; preds = %95, %.preheader.i
  %80 = phi i64 [ 0, %.preheader.i ], [ %97, %95 ]
  %81 = phi ptr [ %77, %.preheader.i ], [ %96, %95 ]
  %82 = load i8, ptr %81, align 1
  switch i8 %82, label %85 [
    i8 46, label %83
    i8 0, label %83
  ]

83:                                               ; preds = %79, %79
  %84 = getelementptr i8, ptr %76, i64 %80
  store i8 95, ptr %84, align 1
  br label %95

85:                                               ; preds = %79
  %86 = zext i8 %82 to i64
  %87 = getelementptr [0 x i8], ptr @_ctype, i64 0, i64 %86
  %88 = load i8, ptr %87, align 1
  %89 = and i8 %88, 2
  %90 = icmp eq i8 %89, 0
  %91 = add i8 %82, -32
  %92 = select i1 %90, i8 %82, i8 %91
  %93 = getelementptr i8, ptr %76, i64 %80
  store i8 %92, ptr %93, align 1
  %94 = getelementptr i8, ptr %81, i64 1
  br label %95

95:                                               ; preds = %85, %83
  %96 = phi ptr [ %81, %83 ], [ %94, %85 ]
  %97 = add nuw nsw i64 %80, 1
  %98 = icmp eq i64 %97, 4
  br i1 %98, label %99, label %79, !llvm.loop !12

99:                                               ; preds = %95
  %100 = load i8, ptr %96, align 1
  switch i8 %100, label %acpi_ns_build_internal_name.exit [
    i8 46, label %101
    i8 0, label %101
  ]

101:                                              ; preds = %99, %99
  %102 = getelementptr i8, ptr %96, i64 1
  %103 = getelementptr i8, ptr %76, i64 4
  %104 = add i32 %78, -1
  %105 = icmp eq i32 %104, 0
  br i1 %105, label %.loopexit, label %.preheader.i, !llvm.loop !13

acpi_ns_build_internal_name.exit:                 ; preds = %99
  call void @kfree(ptr noundef nonnull %44) #9
  br label %107

.loopexit:                                        ; preds = %101, %73
  %106 = phi ptr [ %74, %73 ], [ %103, %101 ]
  store i8 0, ptr %106, align 1
  store ptr %44, ptr %1, align 8
  br label %107

107:                                              ; preds = %.loopexit, %acpi_ns_build_internal_name.exit, %.loopexit22, %5, %2
  %108 = phi i32 [ 4099, %acpi_ns_build_internal_name.exit ], [ 0, %.loopexit ], [ 4097, %5 ], [ 4097, %2 ], [ 4, %.loopexit22 ]
  ret i32 %108
}